Certificate:
    Data:
        Version: 3 (0x2)
        Serial Number: 2 (0x2)
    Signature Algorithm: sha1WithRSAEncryption
        Issuer: C=GB, O=Certificate Transparency CA, ST=Wales, L=Erw Wen
        Validity
            Not Before: Jun  1 00:00:00 2012 GMT
            Not After : Jun  1 00:00:00 2022 GMT
        Subject: C=GB, O=Certificate Transparency PreCA, ST=Wales, L=Erw Wen
        Subject Public Key Info:
            Public Key Algorithm: rsaEncryption
                Public-Key: (1024 bit)
                Modulus:
                    00:bc:88:6d:64:92:b1:fb:88:57:94:68:9d:af:a7:
                    1b:80:2d:ac:b2:fc:4f:1c:e6:da:99:9c:fa:77:d1:
                    29:89:7c:87:b2:49:7c:ef:0a:78:cc:5b:26:51:67:
                    78:c5:36:ce:d5:13:ee:1c:55:1b:61:ac:cf:17:ed:
                    16:13:85:0f:dd:50:b2:38:15:20:d5:5b:92:d8:35:
                    e2:19:3d:fc:df:ac:3a:98:91:58:51:00:2a:bc:4d:
                    44:e3:9d:ea:f2:77:e3:79:2c:6a:1a:3c:76:02:c2:
                    bb:1a:0a:51:0a:e9:67:bc:39:3a:97:24:73:23:d3:
                    a1:a3:cd:f2:98:f8:13:ad:eb
                Exponent: 65537 (0x10001)
        X509v3 extensions:
            X509v3 Subject Key Identifier: 
                F1:A7:44:87:95:F7:A0:AA:93:03:28:F2:E0:47:78:4B:48:20:8A:D1
            X509v3 Basic Constraints: critical
                CA:TRUE
            X509v3 Extended Key Usage: critical
                CT Precertificate Signer
            X509v3 Authority Key Identifier: 
                keyid:50:59:A8:55:E6:4F:A0:28:EE:88:4F:8F:47:79:8F:12:4D:A4:A6:DD
                DirName:/C=GB/O=Certificate Transparency CA/ST=Wales/L=Erw Wen
                serial:01

    Signature Algorithm: sha1WithRSAEncryption
         ca:2f:33:58:66:5a:5b:fb:f3:02:64:a7:a6:09:1c:11:78:f5:
         c4:04:64:ff:69:70:bd:d4:12:e7:3b:e3:60:ac:29:7c:bc:12:
         e7:6e:97:56:fb:56:c6:20:8c:4a:a1:b9:13:5e:4b:9e:08:a7:
         fd:00:47:1b:95:ff:19:6e:61:51:15:fe:4a:2a:29:a8:5a:34:
         56:c5:1d:27:d6:83:03:7a:7e:c4:0c:b2:ee:24:00:75:87:6b:
         18:09:37:a5:38:95:eb:31:a3:38:28:29:0b:11:44:3d:95:8a:
         71:bc:ad:4f:c2:77:d6:d7:42:39:da:28:c2:38:6b:f6:08:5c:
         dc:fb
-----BEGIN CERTIFICATE-----
MIIC8DCCAlmgAwIBAgIBAjANBgkqhkiG9w0BAQUFADBVMQswCQYDVQQGEwJHQjEk
MCIGA1UECgwbQ2VydGlmaWNhdGUgVHJhbnNwYXJlbmN5IENBMQ4wDAYDVQQIDAVX
YWxlczEQMA4GA1UEBwwHRXJ3IFdlbjAeFw0xMjA2MDEwMDAwMDBaFw0yMjA2MDEw
MDAwMDBaMFgxCzAJBgNVBAYTAkdCMScwJQYDVQQKDB5DZXJ0aWZpY2F0ZSBUcmFu
c3BhcmVuY3kgUHJlQ0ExDjAMBgNVBAgMBVdhbGVzMRAwDgYDVQQHDAdFcncgV2Vu
MIGfMA0GCSqGSIb3DQEBAQUAA4GNADCBiQKBgQC8iG1kkrH7iFeUaJ2vpxuALayy
/E8c5tqZnPp30SmJfIeySXzvCnjMWyZRZ3jFNs7VE+4cVRthrM8X7RYThQ/dULI4
FSDVW5LYNeIZPfzfrDqYkVhRACq8TUTjneryd+N5LGoaPHYCwrsaClEK6We8OTqX
JHMj06GjzfKY+BOt6wIDAQABo4HMMIHJMB0GA1UdDgQWBBTxp0SHlfegqpMDKPLg
R3hLSCCK0TAPBgNVHRMBAf8EBTADAQH/MBgGA1UdJQEB/wQOMAwGCisGAQQB1nkC
BAQwfQYDVR0jBHYwdIAUUFmoVeZPoCjuiE+PR3mPEk2kpt2hWaRXMFUxCzAJBgNV
BAYTAkdCMSQwIgYDVQQKDBtDZXJ0aWZpY2F0ZSBUcmFuc3BhcmVuY3kgQ0ExDjAM
BgNVBAgMBVdhbGVzMRAwDgYDVQQHDAdFcncgV2VuggEBMA0GCSqGSIb3DQEBBQUA
A4GBAMovM1hmWlv78wJkp6YJHBF49cQEZP9pcL3UEuc742CsKXy8Eudul1b7VsYg
jEqhuRNeS54Ip/0ARxuV/xluYVEV/koqKahaNFbFHSfWgwN6fsQMsu4kAHWHaxgJ
N6U4lesxozgoKQsRRD2VinG8rU/Cd9bXQjnaKMI4a/YIXNz7
-----END CERTIFICATE-----
