Certificate:
    Data:
        Version: 3 (0x2)
        Serial Number: 7 (0x7)
    Signature Algorithm: sha1WithRSAEncryption
        Issuer: C=GB, O=Certificate Transparency CA, ST=Wales, L=Erw Wen
        Validity
            Not Before: Jun  1 00:00:00 2012 GMT
            Not After : Jun  1 00:00:00 2022 GMT
        Subject: C=GB, O=Certificate Transparency, ST=Wales, L=Erw Wen, CN=example.com
        Subject Public Key Info:
            Public Key Algorithm: rsaEncryption
                Public-Key: (1024 bit)
                Modulus:
                    00:c8:95:4f:71:ab:05:b3:2f:d7:04:4d:11:4a:bf:
                    bf:81:2b:b7:74:f7:88:34:10:ea:e7:13:23:b9:ac:
                    c2:72:2a:ce:6c:f9:63:89:a5:ea:0b:99:ab:3c:88:
                    95:d3:b1:e7:13:e2:34:b1:5a:4f:66:cc:53:f3:af:
                    48:92:d6:4a:24:48:92:72:fd:86:75:87:9b:f0:4f:
                    f6:9f:ef:d2:d5:87:cc:38:8f:85:c6:11:00:eb:c2:
                    45:a2:e8:0a:e4:b7:ac:a8:c1:a7:63:bc:41:6b:1a:
                    53:fc:ce:6b:46:c5:6d:1c:f8:9e:4d:53:a7:e1:3c:
                    59:89:3d:49:50:66:d0:97:8f
                Exponent: 65537 (0x10001)
        X509v3 extensions:
            X509v3 Subject Key Identifier: 
                66:4F:4F:7B:D4:E2:94:BC:B9:1C:CC:C3:8D:4D:45:97:28:A5:94:98
            X509v3 Authority Key Identifier: 
                keyid:50:59:A8:55:E6:4F:A0:28:EE:88:4F:8F:47:79:8F:12:4D:A4:A6:DD
                DirName:/C=GB/O=Certificate Transparency CA/ST=Wales/L=Erw Wen
                serial:01

            X509v3 Basic Constraints: 
                CA:FALSE
    Signature Algorithm: sha1WithRSAEncryption
         66:0e:34:91:9d:a8:17:36:2f:f9:fa:c8:f0:e1:4f:91:10:70:
         50:cb:a2:e5:74:53:49:45:05:63:9b:75:3d:91:30:d9:d3:7c:
         1a:13:0b:19:f4:0b:a9:3d:30:40:bf:7e:5b:8c:cc:f1:8f:93:
         f3:17:ed:bc:ee:5c:12:a8:ec:5d:a6:b3:b7:72:5a:2b:99:fd:
         59:db:01:3e:93:f1:40:69:90:5b:25:8d:d0:db:61:76:fe:20:
         e0:23:20:81:a2:0a:f8:67:fe:d0:00:ce:c7:e1:ed:c7:42:72:
         ba:57:31:63:31:b4:f6:18:f5:ae:8d:b7:15:30:c8:0d:71:ad:
         51:6d
-----BEGIN CERTIFICATE-----
MIIC4DCCAkmgAwIBAgIBBzANBgkqhkiG9w0BAQUFADBVMQswCQYDVQQGEwJHQjEk
MCIGA1UECgwbQ2VydGlmaWNhdGUgVHJhbnNwYXJlbmN5IENBMQ4wDAYDVQQIDAVX
YWxlczEQMA4GA1UEBwwHRXJ3IFdlbjAeFw0xMjA2MDEwMDAwMDBaFw0yMjA2MDEw
MDAwMDBaMGgxCzAJBgNVBAYTAkdCMSEwHwYDVQQKDBhDZXJ0aWZpY2F0ZSBUcmFu
c3BhcmVuY3kxDjAMBgNVBAgMBVdhbGVzMRAwDgYDVQQHDAdFcncgV2VuMRQwEgYD
VQQDDAtleGFtcGxlLmNvbTCBnzANBgkqhkiG9w0BAQEFAAOBjQAwgYkCgYEAyJVP
casFsy/XBE0RSr+/gSu3dPeINBDq5xMjuazCcirObPljiaXqC5mrPIiV07HnE+I0
sVpPZsxT869IktZKJEiScv2GdYeb8E/2n+/S1YfMOI+FxhEA68JFougK5LesqMGn
Y7xBaxpT/M5rRsVtHPieTVOn4TxZiT1JUGbQl48CAwEAAaOBrDCBqTAdBgNVHQ4E
FgQUZk9Pe9TilLy5HMzDjU1FlyillJgwfQYDVR0jBHYwdIAUUFmoVeZPoCjuiE+P
R3mPEk2kpt2hWaRXMFUxCzAJBgNVBAYTAkdCMSQwIgYDVQQKDBtDZXJ0aWZpY2F0
ZSBUcmFuc3BhcmVuY3kgQ0ExDjAMBgNVBAgMBVdhbGVzMRAwDgYDVQQHDAdFcncg
V2VuggEBMAkGA1UdEwQCMAAwDQYJKoZIhvcNAQEFBQADgYEAZg40kZ2oFzYv+frI
8OFPkRBwUMui5XRTSUUFY5t1PZEw2dN8GhMLGfQLqT0wQL9+W4zM8Y+T8xftvO5c
EqjsXaazt3JaK5n9WdsBPpPxQGmQWyWN0Nthdv4g4CMggaIK+Gf+0ADOx+Htx0Jy
ulcxYzG09hj1ro23FTDIDXGtUW0=
-----END CERTIFICATE-----
