Certificate:
    Data:
        Version: 3 (0x2)
        Serial Number: 8 (0x8)
    Signature Algorithm: sha1WithRSAEncryption
        Issuer: C=GB, O=Certificate Transparency CA, ST=Wales, L=Erw Wen
        Validity
            Not Before: Jun  1 00:00:00 2012 GMT
            Not After : Jun  1 00:00:00 2022 GMT
        Subject: C=GB, O=Certificate Transparency, ST=Wales, L=Erw Wen, CN=127.0.0.1
        Subject Public Key Info:
            Public Key Algorithm: rsaEncryption
                Public-Key: (1024 bit)
                Modulus:
                    00:cf:97:01:eb:b3:96:ec:c5:d5:cb:c5:26:88:eb:
                    4d:0b:38:a6:25:48:7b:62:ec:4e:3b:40:31:57:2c:
                    82:54:dc:13:37:6a:95:ec:cb:b6:99:c0:8a:bd:b3:
                    c5:bb:06:5d:23:ad:8b:dc:b4:d2:56:2b:6e:e9:1e:
                    2a:16:f1:a5:59:8a:d2:c4:f7:e5:be:39:bf:56:99:
                    60:bd:bb:66:84:1f:94:05:27:e6:6b:fb:01:fb:7a:
                    9e:94:60:5e:70:bc:36:16:cb:62:d8:bf:3b:10:4d:
                    c3:14:62:37:57:0a:52:3a:3c:3c:2e:25:f8:c8:a0:
                    71:63:3a:55:c0:75:85:b1:0f
                Exponent: 65537 (0x10001)
        X509v3 extensions:
            X509v3 Subject Key Identifier: 
                88:0F:CB:6E:57:99:0C:03:2C:6F:33:94:28:5C:2E:40:E8:1F:1E:F3
            X509v3 Authority Key Identifier: 
                keyid:50:59:A8:55:E6:4F:A0:28:EE:88:4F:8F:47:79:8F:12:4D:A4:A6:DD
                DirName:/C=GB/O=Certificate Transparency CA/ST=Wales/L=Erw Wen
                serial:01

            X509v3 Basic Constraints: 
                CA:FALSE
    Signature Algorithm: sha1WithRSAEncryption
         98:9c:38:72:1a:2b:af:bc:c3:ae:35:e5:7a:eb:0b:fb:90:15:
         d0:d2:9b:45:39:b2:33:c9:16:28:ed:98:44:3d:4f:08:1f:c3:
         ee:72:26:0c:54:e7:33:ff:8f:d3:23:d2:ce:0d:5a:f7:83:71:
         52:0e:a8:24:93:58:a0:99:12:6e:e6:34:42:12:53:38:29:69:
         9f:74:b8:9c:63:c4:38:ec:62:0d:b5:f3:75:e3:74:c6:48:b2:
         3d:46:c5:76:d5:42:78:ae:11:70:2f:c4:74:63:ba:c1:03:c4:
         11:b4:66:78:83:f5:b2:40:aa:b8:9f:c8:b0:a9:11:27:ae:f1:
         76:b7
-----BEGIN CERTIFICATE-----
MIIC3jCCAkegAwIBAgIBCDANBgkqhkiG9w0BAQUFADBVMQswCQYDVQQGEwJHQjEk
MCIGA1UECgwbQ2VydGlmaWNhdGUgVHJhbnNwYXJlbmN5IENBMQ4wDAYDVQQIDAVX
YWxlczEQMA4GA1UEBwwHRXJ3IFdlbjAeFw0xMjA2MDEwMDAwMDBaFw0yMjA2MDEw
MDAwMDBaMGYxCzAJBgNVBAYTAkdCMSEwHwYDVQQKDBhDZXJ0aWZpY2F0ZSBUcmFu
c3BhcmVuY3kxDjAMBgNVBAgMBVdhbGVzMRAwDgYDVQQHDAdFcncgV2VuMRIwEAYD
VQQDDAkxMjcuMC4wLjEwgZ8wDQYJKoZIhvcNAQEBBQADgY0AMIGJAoGBAM+XAeuz
luzF1cvFJojrTQs4piVIe2LsTjtAMVcsglTcEzdqlezLtpnAir2zxbsGXSOti9y0
0lYrbukeKhbxpVmK0sT35b45v1aZYL27ZoQflAUn5mv7Aft6npRgXnC8NhbLYti/
OxBNwxRiN1cKUjo8PC4l+MigcWM6VcB1hbEPAgMBAAGjgawwgakwHQYDVR0OBBYE
FIgPy25XmQwDLG8zlChcLkDoHx7zMH0GA1UdIwR2MHSAFFBZqFXmT6Ao7ohPj0d5
jxJNpKbdoVmkVzBVMQswCQYDVQQGEwJHQjEkMCIGA1UECgwbQ2VydGlmaWNhdGUg
VHJhbnNwYXJlbmN5IENBMQ4wDAYDVQQIDAVXYWxlczEQMA4GA1UEBwwHRXJ3IFdl
boIBATAJBgNVHRMEAjAAMA0GCSqGSIb3DQEBBQUAA4GBAJicOHIaK6+8w6415Xrr
C/uQFdDSm0U5sjPJFijtmEQ9Twgfw+5yJgxU5zP/j9Mj0s4NWveDcVIOqCSTWKCZ
Em7mNEISUzgpaZ90uJxjxDjsYg2183XjdMZIsj1GxXbVQniuEXAvxHRjusEDxBG0
ZniD9bJAqrifyLCpESeu8Xa3
-----END CERTIFICATE-----
