Certificate:
    Data:
        Version: 3 (0x2)
        Serial Number: 5 (0x5)
    Signature Algorithm: sha1WithRSAEncryption
        Issuer: C=GB, O=Certificate Transparency CA, ST=Wales, L=Erw Wen
        Validity
            Not Before: Jun  1 00:00:00 2012 GMT
            Not After : Jun  1 00:00:00 2022 GMT
        Subject: C=GB, O=Certificate Transparency, ST=Wales, L=Erw Wen, CN=binky.example.com
        Subject Public Key Info:
            Public Key Algorithm: rsaEncryption
                Public-Key: (1024 bit)
                Modulus:
                    00:f7:25:2f:36:e1:5e:a1:be:3c:09:2d:7c:16:36:
                    a8:6e:5d:cd:57:bd:38:bb:a3:6f:f3:12:ed:7f:9f:
                    0b:17:3f:f8:de:f6:bf:e4:df:14:33:cd:4b:1e:a8:
                    1b:22:00:d0:f0:20:96:17:af:12:4b:7c:54:37:33:
                    0b:a7:e5:49:22:ed:49:da:a6:8a:39:42:5f:b9:bc:
                    fd:2a:de:af:36:39:d9:1c:79:80:31:03:dc:03:27:
                    31:17:40:87:0f:50:26:ce:f1:d5:a6:03:35:21:30:
                    f0:b9:28:ae:b2:c4:63:de:62:1b:94:12:60:d6:d8:
                    ad:5c:bd:a4:68:d6:f7:fe:33
                Exponent: 65537 (0x10001)
        X509v3 extensions:
            X509v3 Subject Key Identifier: 
                F4:BB:8D:43:CD:30:9F:A5:E1:F7:53:96:F0:DF:71:49:37:18:AD:BE
            X509v3 Authority Key Identifier: 
                keyid:50:59:A8:55:E6:4F:A0:28:EE:88:4F:8F:47:79:8F:12:4D:A4:A6:DD
                DirName:/C=GB/O=Certificate Transparency CA/ST=Wales/L=Erw Wen
                serial:01

            X509v3 Basic Constraints: 
                CA:FALSE
    Signature Algorithm: sha1WithRSAEncryption
         28:2e:d4:4f:87:5c:54:ed:6f:b5:ea:37:8f:8f:bf:f2:52:d7:
         db:db:ec:87:84:a5:93:92:f0:2a:a7:9f:08:b3:83:00:55:39:
         6f:30:f6:df:a0:90:c7:70:2c:19:54:8d:63:83:ab:c6:c0:98:
         99:a1:cf:d1:92:7b:b6:ba:ec:1f:dc:96:e6:16:03:1f:f2:ba:
         01:83:c2:f0:31:19:bb:3e:2f:59:95:0b:4b:87:a4:32:7e:de:
         1a:40:d7:98:00:f0:d1:26:fa:dd:7e:d6:be:22:b0:69:01:df:
         73:23:d2:8d:89:dd:25:89:45:6e:0e:04:dc:15:7b:e8:76:95:
         2f:6a
-----BEGIN CERTIFICATE-----
MIIC5jCCAk+gAwIBAgIBBTANBgkqhkiG9w0BAQUFADBVMQswCQYDVQQGEwJHQjEk
MCIGA1UECgwbQ2VydGlmaWNhdGUgVHJhbnNwYXJlbmN5IENBMQ4wDAYDVQQIDAVX
YWxlczEQMA4GA1UEBwwHRXJ3IFdlbjAeFw0xMjA2MDEwMDAwMDBaFw0yMjA2MDEw
MDAwMDBaMG4xCzAJBgNVBAYTAkdCMSEwHwYDVQQKDBhDZXJ0aWZpY2F0ZSBUcmFu
c3BhcmVuY3kxDjAMBgNVBAgMBVdhbGVzMRAwDgYDVQQHDAdFcncgV2VuMRowGAYD
VQQDDBFiaW5reS5leGFtcGxlLmNvbTCBnzANBgkqhkiG9w0BAQEFAAOBjQAwgYkC
gYEA9yUvNuFeob48CS18Fjaobl3NV704u6Nv8xLtf58LFz/43va/5N8UM81LHqgb
IgDQ8CCWF68SS3xUNzMLp+VJIu1J2qaKOUJfubz9Kt6vNjnZHHmAMQPcAycxF0CH
D1AmzvHVpgM1ITDwuSiussRj3mIblBJg1titXL2kaNb3/jMCAwEAAaOBrDCBqTAd
BgNVHQ4EFgQU9LuNQ80wn6Xh91OW8N9xSTcYrb4wfQYDVR0jBHYwdIAUUFmoVeZP
oCjuiE+PR3mPEk2kpt2hWaRXMFUxCzAJBgNVBAYTAkdCMSQwIgYDVQQKDBtDZXJ0
aWZpY2F0ZSBUcmFuc3BhcmVuY3kgQ0ExDjAMBgNVBAgMBVdhbGVzMRAwDgYDVQQH
DAdFcncgV2VuggEBMAkGA1UdEwQCMAAwDQYJKoZIhvcNAQEFBQADgYEAKC7UT4dc
VO1vteo3j4+/8lLX29vsh4Slk5LwKqefCLODAFU5bzD236CQx3AsGVSNY4OrxsCY
maHP0ZJ7trrsH9yW5hYDH/K6AYPC8DEZuz4vWZULS4ekMn7eGkDXmADw0Sb63X7W
viKwaQHfcyPSjYndJYlFbg4E3BV76HaVL2o=
-----END CERTIFICATE-----
