Certificate:
    Data:
        Version: 3 (0x2)
        Serial Number: 1 (0x1)
    Signature Algorithm: sha1WithRSAEncryption
        Issuer: C=GB, O=Certificate Transparency CA, ST=Wales, L=Erw Wen
        Validity
            Not Before: Jun  1 00:00:00 2012 GMT
            Not After : Jun  1 00:00:00 2022 GMT
        Subject: C=GB, O=Certificate Transparency CA, ST=Wales, L=Erw Wen
        Subject Public Key Info:
            Public Key Algorithm: rsaEncryption
                Public-Key: (1024 bit)
                Modulus:
                    00:df:ae:75:4d:0a:55:f7:e7:99:06:30:cc:44:0b:
                    b2:37:d3:71:e9:65:59:4f:5e:63:1a:29:51:b1:42:
                    99:a6:90:ea:6b:dd:18:71:53:be:c1:ca:0f:69:3d:
                    ad:69:0d:be:a0:73:18:97:86:57:4f:5c:d1:85:47:
                    d8:f5:f7:f8:2c:32:a8:43:cc:83:7e:9e:f0:58:8a:
                    b6:b8:38:4a:31:74:4a:f2:42:1b:ac:9e:ff:bf:ec:
                    de:9d:f5:12:0a:ff:a3:2b:67:15:43:1f:07:49:1f:
                    b6:f7:7b:96:58:95:33:df:e5:ab:c1:9e:a0:e1:a7:
                    45:be:3e:df:7e:28:15:59:31
                Exponent: 65537 (0x10001)
        X509v3 extensions:
            X509v3 Subject Key Identifier: 
                50:59:A8:55:E6:4F:A0:28:EE:88:4F:8F:47:79:8F:12:4D:A4:A6:DD
            X509v3 Authority Key Identifier: 
                keyid:50:59:A8:55:E6:4F:A0:28:EE:88:4F:8F:47:79:8F:12:4D:A4:A6:DD
                DirName:/C=GB/O=Certificate Transparency CA/ST=Wales/L=Erw Wen
                serial:01

            X509v3 Basic Constraints: 
                CA:TRUE
    Signature Algorithm: sha1WithRSAEncryption
         5d:b2:e9:09:27:a1:00:7f:6d:84:a0:15:50:1f:2e:99:a1:f5:
         8e:9d:63:b2:c2:6c:41:9e:97:a4:fe:bd:97:72:ee:92:42:05:
         11:74:78:f3:85:ff:fb:d2:03:e2:4f:8f:93:35:a2:a2:10:6b:
         4a:27:9e:b2:ec:d5:16:a2:ba:a4:c1:97:2b:91:f8:63:32:a3:
         02:fb:9d:2b:f9:cf:0b:63:8d:14:2f:b3:3b:20:b1:e2:cf:4d:
         60:2c:81:e8:fc:6f:32:12:96:ab:f4:7d:8d:7a:a3:5f:7a:78:
         65:7d:c2:5e:55:06:ff:60:09:e3:fb:5b:bc:d0:37:94:4f:b1:
         a5:f4
-----BEGIN CERTIFICATE-----
MIIC0DCCAjmgAwIBAgIBATANBgkqhkiG9w0BAQUFADBVMQswCQYDVQQGEwJHQjEk
MCIGA1UECgwbQ2VydGlmaWNhdGUgVHJhbnNwYXJlbmN5IENBMQ4wDAYDVQQIDAVX
YWxlczEQMA4GA1UEBwwHRXJ3IFdlbjAeFw0xMjA2MDEwMDAwMDBaFw0yMjA2MDEw
MDAwMDBaMFUxCzAJBgNVBAYTAkdCMSQwIgYDVQQKDBtDZXJ0aWZpY2F0ZSBUcmFu
c3BhcmVuY3kgQ0ExDjAMBgNVBAgMBVdhbGVzMRAwDgYDVQQHDAdFcncgV2VuMIGf
MA0GCSqGSIb3DQEBAQUAA4GNADCBiQKBgQDfrnVNClX355kGMMxEC7I303HpZVlP
XmMaKVGxQpmmkOpr3RhxU77Byg9pPa1pDb6gcxiXhldPXNGFR9j19/gsMqhDzIN+
nvBYira4OEoxdEryQhusnv+/7N6d9RIK/6MrZxVDHwdJH7b3e5ZYlTPf5avBnqDh
p0W+Pt9+KBVZMQIDAQABo4GvMIGsMB0GA1UdDgQWBBRQWahV5k+gKO6IT49HeY8S
TaSm3TB9BgNVHSMEdjB0gBRQWahV5k+gKO6IT49HeY8STaSm3aFZpFcwVTELMAkG
A1UEBhMCR0IxJDAiBgNVBAoMG0NlcnRpZmljYXRlIFRyYW5zcGFyZW5jeSBDQTEO
MAwGA1UECAwFV2FsZXMxEDAOBgNVBAcMB0VydyBXZW6CAQEwDAYDVR0TBAUwAwEB
/zANBgkqhkiG9w0BAQUFAAOBgQBdsukJJ6EAf22EoBVQHy6ZofWOnWOywmxBnpek
/r2Xcu6SQgURdHjzhf/70gPiT4+TNaKiEGtKJ56y7NUWorqkwZcrkfhjMqMC+50r
+c8LY40UL7M7ILHiz01gLIHo/G8yEpar9H2NeqNfenhlfcJeVQb/YAnj+1u80DeU
T7Gl9A==
-----END CERTIFICATE-----
