Certificate:
    Data:
        Version: 3 (0x2)
        Serial Number: 4 (0x4)
    Signature Algorithm: sha1WithRSAEncryption
        Issuer: C=GB, O=Certificate Transparency CA, ST=Wales, L=Erw Wen
        Validity
            Not Before: Jun  1 00:00:00 2012 GMT
            Not After : Jun  1 00:00:00 2022 GMT
        Subject: C=GB, O=Certificate Transparency, ST=Wales, L=Erw Wen, CN=localhost
        Subject Public Key Info:
            Public Key Algorithm: rsaEncryption
                Public-Key: (1024 bit)
                Modulus:
                    00:da:28:b2:48:aa:9b:ee:8e:db:35:24:bf:74:4e:
                    3d:4e:0c:92:72:22:12:91:7d:fc:09:84:30:b5:79:
                    9f:57:35:5a:18:71:ac:70:0e:dc:57:5f:dc:a2:11:
                    4a:ba:b3:d0:e8:9c:7b:21:df:16:d0:84:f4:6e:f7:
                    02:33:c5:3e:ed:eb:77:0a:fd:92:20:03:67:b0:55:
                    1e:c4:89:65:5b:ae:ca:ab:b2:a2:c8:43:b4:d3:dc:
                    57:a5:4c:5f:b2:ae:53:c8:8f:17:4d:c9:8e:9f:34:
                    60:ad:86:a5:3f:db:a9:82:df:84:a1:dd:a6:15:bf:
                    2d:8b:b7:0f:ca:25:ba:87:c1
                Exponent: 65537 (0x10001)
        X509v3 extensions:
            X509v3 Subject Key Identifier: 
                92:00:BF:51:A1:FD:3E:F9:4B:14:B6:C5:39:B1:51:E7:5E:53:A4:6C
            X509v3 Authority Key Identifier: 
                keyid:50:59:A8:55:E6:4F:A0:28:EE:88:4F:8F:47:79:8F:12:4D:A4:A6:DD
                DirName:/C=GB/O=Certificate Transparency CA/ST=Wales/L=Erw Wen
                serial:01

            X509v3 Basic Constraints: 
                CA:FALSE
    Signature Algorithm: sha1WithRSAEncryption
         13:1c:98:5f:96:a9:ff:04:e9:e6:7f:69:c7:b2:e2:ee:39:2f:
         05:f8:7f:45:09:70:da:aa:c4:55:fc:7d:e7:97:9d:8f:70:a2:
         23:56:df:86:f3:f5:42:fc:10:f4:ce:d8:82:d7:e0:77:64:56:
         9b:88:97:9b:e7:67:1f:83:cb:ff:16:78:2f:d4:c6:59:9c:37:
         1c:41:ca:fe:d2:cf:3b:41:bf:95:e8:e1:9b:30:61:ad:57:09:
         6b:5d:97:d6:30:2c:ee:06:6f:bb:9a:8d:c6:63:42:d9:e6:7e:
         9e:5b:69:bb:11:d1:f3:ef:ec:7e:59:58:46:0c:c8:30:71:50:
         9a:d8
-----BEGIN CERTIFICATE-----
MIIC3jCCAkegAwIBAgIBBDANBgkqhkiG9w0BAQUFADBVMQswCQYDVQQGEwJHQjEk
MCIGA1UECgwbQ2VydGlmaWNhdGUgVHJhbnNwYXJlbmN5IENBMQ4wDAYDVQQIDAVX
YWxlczEQMA4GA1UEBwwHRXJ3IFdlbjAeFw0xMjA2MDEwMDAwMDBaFw0yMjA2MDEw
MDAwMDBaMGYxCzAJBgNVBAYTAkdCMSEwHwYDVQQKDBhDZXJ0aWZpY2F0ZSBUcmFu
c3BhcmVuY3kxDjAMBgNVBAgMBVdhbGVzMRAwDgYDVQQHDAdFcncgV2VuMRIwEAYD
VQQDDAlsb2NhbGhvc3QwgZ8wDQYJKoZIhvcNAQEBBQADgY0AMIGJAoGBANooskiq
m+6O2zUkv3ROPU4MknIiEpF9/AmEMLV5n1c1WhhxrHAO3Fdf3KIRSrqz0OiceyHf
FtCE9G73AjPFPu3rdwr9kiADZ7BVHsSJZVuuyquyoshDtNPcV6VMX7KuU8iPF03J
jp80YK2GpT/bqYLfhKHdphW/LYu3D8oluofBAgMBAAGjgawwgakwHQYDVR0OBBYE
FJIAv1Gh/T75SxS2xTmxUedeU6RsMH0GA1UdIwR2MHSAFFBZqFXmT6Ao7ohPj0d5
jxJNpKbdoVmkVzBVMQswCQYDVQQGEwJHQjEkMCIGA1UECgwbQ2VydGlmaWNhdGUg
VHJhbnNwYXJlbmN5IENBMQ4wDAYDVQQIDAVXYWxlczEQMA4GA1UEBwwHRXJ3IFdl
boIBATAJBgNVHRMEAjAAMA0GCSqGSIb3DQEBBQUAA4GBABMcmF+Wqf8E6eZ/acey
4u45LwX4f0UJcNqqxFX8feeXnY9woiNW34bz9UL8EPTO2ILX4HdkVpuIl5vnZx+D
y/8WeC/UxlmcNxxByv7SzztBv5Xo4ZswYa1XCWtdl9YwLO4Gb7uajcZjQtnmfp5b
absR0fPv7H5ZWEYMyDBxUJrY
-----END CERTIFICATE-----
