Certificate:
    Data:
        Version: 3 (0x2)
        Serial Number: 3 (0x3)
    Signature Algorithm: sha1WithRSAEncryption
        Issuer: C=GB, O=Certificate Transparency CA, ST=Wales, L=Erw Wen
        Validity
            Not Before: Jun  1 00:00:00 2012 GMT
            Not After : Jun  1 00:00:00 2022 GMT
        Subject: C=GB, O=Certificate Transparency, ST=Wales, L=Erw Wen, CN=not-localhost
        Subject Public Key Info:
            Public Key Algorithm: rsaEncryption
                Public-Key: (1024 bit)
                Modulus:
                    00:af:ec:3c:d0:14:7e:cd:5e:bf:ca:79:e5:70:bf:
                    bc:12:30:16:99:5a:6d:0a:a3:a9:50:11:34:bd:24:
                    54:6d:b4:d9:b6:34:db:8a:01:93:6b:c7:18:d2:09:
                    9f:1e:66:22:bf:db:9e:16:87:24:c5:88:3d:86:46:
                    f1:fd:e7:95:9a:7e:42:70:4b:71:87:e5:00:07:58:
                    89:96:bd:ec:ed:c8:04:86:db:c4:1a:e6:19:a0:80:
                    48:40:26:2f:65:55:e6:dc:64:ee:b8:a2:66:f3:0e:
                    29:f8:91:a7:ca:b2:6b:3f:18:e7:44:48:82:1b:0e:
                    84:aa:45:54:ff:3e:03:ee:05
                Exponent: 65537 (0x10001)
        X509v3 extensions:
            X509v3 Subject Key Identifier: 
                8D:A4:33:01:5F:8A:60:46:D0:E4:B2:95:37:71:DF:44:D2:C0:86:1E
            X509v3 Authority Key Identifier: 
                keyid:50:59:A8:55:E6:4F:A0:28:EE:88:4F:8F:47:79:8F:12:4D:A4:A6:DD
                DirName:/C=GB/O=Certificate Transparency CA/ST=Wales/L=Erw Wen
                serial:01

            X509v3 Basic Constraints: 
                CA:FALSE
    Signature Algorithm: sha1WithRSAEncryption
         95:51:7b:9e:58:48:4e:f8:f0:1d:91:9e:3a:ec:62:d3:7e:a7:
         dd:b8:b0:ed:66:9d:57:5f:35:1c:9e:92:20:9e:60:a9:3a:af:
         88:80:5b:d5:b6:36:1f:5f:b8:0f:c3:2e:e2:43:60:7e:c5:51:
         6e:6e:44:43:38:39:eb:94:27:c5:bf:04:a3:01:89:05:69:48:
         1a:e9:45:74:7b:67:52:70:89:9e:32:10:a6:af:4d:7c:a8:ec:
         ab:2f:78:98:3a:3a:9e:1b:d6:8b:75:c5:58:91:e7:0b:a7:bf:
         96:8c:0d:4e:43:97:5b:c0:ab:7c:17:9a:10:07:50:7b:3b:51:
         be:0a
-----BEGIN CERTIFICATE-----
MIIC4jCCAkugAwIBAgIBAzANBgkqhkiG9w0BAQUFADBVMQswCQYDVQQGEwJHQjEk
MCIGA1UECgwbQ2VydGlmaWNhdGUgVHJhbnNwYXJlbmN5IENBMQ4wDAYDVQQIDAVX
YWxlczEQMA4GA1UEBwwHRXJ3IFdlbjAeFw0xMjA2MDEwMDAwMDBaFw0yMjA2MDEw
MDAwMDBaMGoxCzAJBgNVBAYTAkdCMSEwHwYDVQQKDBhDZXJ0aWZpY2F0ZSBUcmFu
c3BhcmVuY3kxDjAMBgNVBAgMBVdhbGVzMRAwDgYDVQQHDAdFcncgV2VuMRYwFAYD
VQQDDA1ub3QtbG9jYWxob3N0MIGfMA0GCSqGSIb3DQEBAQUAA4GNADCBiQKBgQCv
7DzQFH7NXr/KeeVwv7wSMBaZWm0Ko6lQETS9JFRttNm2NNuKAZNrxxjSCZ8eZiK/
254WhyTFiD2GRvH955WafkJwS3GH5QAHWImWveztyASG28Qa5hmggEhAJi9lVebc
ZO64ombzDin4kafKsms/GOdESIIbDoSqRVT/PgPuBQIDAQABo4GsMIGpMB0GA1Ud
DgQWBBSNpDMBX4pgRtDkspU3cd9E0sCGHjB9BgNVHSMEdjB0gBRQWahV5k+gKO6I
T49HeY8STaSm3aFZpFcwVTELMAkGA1UEBhMCR0IxJDAiBgNVBAoMG0NlcnRpZmlj
YXRlIFRyYW5zcGFyZW5jeSBDQTEOMAwGA1UECAwFV2FsZXMxEDAOBgNVBAcMB0Vy
dyBXZW6CAQEwCQYDVR0TBAIwADANBgkqhkiG9w0BAQUFAAOBgQCVUXueWEhO+PAd
kZ467GLTfqfduLDtZp1XXzUcnpIgnmCpOq+IgFvVtjYfX7gPwy7iQ2B+xVFubkRD
ODnrlCfFvwSjAYkFaUga6UV0e2dScImeMhCmr018qOyrL3iYOjqeG9aLdcVYkecL
p7+WjA1OQ5dbwKt8F5oQB1B7O1G+Cg==
-----END CERTIFICATE-----
