Certificate:
    Data:
        Version: 3 (0x2)
        Serial Number: 6 (0x6)
    Signature Algorithm: sha1WithRSAEncryption
        Issuer: C=GB, O=Certificate Transparency CA, ST=Wales, L=Erw Wen
        Validity
            Not Before: Jun  1 00:00:00 2012 GMT
            Not After : Jun  1 00:00:00 2022 GMT
        Subject: C=GB, O=Certificate Transparency, ST=Wales, L=Erw Wen, CN=*.example.com
        Subject Public Key Info:
            Public Key Algorithm: rsaEncryption
                Public-Key: (1024 bit)
                Modulus:
                    00:d4:d5:5e:82:5a:3a:87:fc:a5:8a:ce:b8:78:f2:
                    8a:18:f2:3c:61:e0:41:12:d2:61:96:b2:e9:85:12:
                    37:c5:e4:2b:ba:b8:6d:0b:15:89:75:f6:76:ca:bc:
                    44:86:05:43:08:73:59:fa:48:69:2f:bf:09:b7:eb:
                    c1:77:be:f5:8b:dd:fc:66:00:fc:87:36:4b:74:ac:
                    3d:87:c1:0f:98:79:33:a1:92:d0:b6:2b:a1:00:e3:
                    96:72:2e:25:62:ae:82:14:30:79:ca:5c:dd:b2:2d:
                    d5:8a:62:31:6c:e8:a7:70:91:db:1e:3b:4e:62:4a:
                    c3:b2:0e:e8:a5:17:ea:35:83
                Exponent: 65537 (0x10001)
        X509v3 extensions:
            X509v3 Subject Key Identifier: 
                2F:E2:B3:F3:78:6C:64:87:51:C1:AB:D1:1B:0D:A9:4D:07:AF:FC:6C
            X509v3 Authority Key Identifier: 
                keyid:50:59:A8:55:E6:4F:A0:28:EE:88:4F:8F:47:79:8F:12:4D:A4:A6:DD
                DirName:/C=GB/O=Certificate Transparency CA/ST=Wales/L=Erw Wen
                serial:01

            X509v3 Basic Constraints: 
                CA:FALSE
    Signature Algorithm: sha1WithRSAEncryption
         01:f9:f2:7d:8f:03:93:c6:8b:6e:d7:40:58:fd:69:ea:0e:53:
         80:d6:3c:59:2f:59:03:81:db:6b:cf:31:d7:3d:97:0d:1a:be:
         63:69:68:df:08:94:90:a7:43:fd:71:57:7f:ab:2c:6c:fe:d1:
         1f:fb:c6:92:11:99:32:11:7f:94:0d:4a:d1:70:8f:08:75:e5:
         34:93:00:45:56:19:3c:a2:84:d3:76:65:cf:32:82:a1:ea:0f:
         ee:9e:4c:a4:97:d8:b2:a5:7e:6b:a5:a0:13:42:72:95:42:e9:
         6a:e2:f2:53:56:49:14:6c:9f:42:b5:33:51:f7:1c:4a:eb:c4:
         bf:86
-----BEGIN CERTIFICATE-----
MIIC4jCCAkugAwIBAgIBBjANBgkqhkiG9w0BAQUFADBVMQswCQYDVQQGEwJHQjEk
MCIGA1UECgwbQ2VydGlmaWNhdGUgVHJhbnNwYXJlbmN5IENBMQ4wDAYDVQQIDAVX
YWxlczEQMA4GA1UEBwwHRXJ3IFdlbjAeFw0xMjA2MDEwMDAwMDBaFw0yMjA2MDEw
MDAwMDBaMGoxCzAJBgNVBAYTAkdCMSEwHwYDVQQKDBhDZXJ0aWZpY2F0ZSBUcmFu
c3BhcmVuY3kxDjAMBgNVBAgMBVdhbGVzMRAwDgYDVQQHDAdFcncgV2VuMRYwFAYD
VQQDDA0qLmV4YW1wbGUuY29tMIGfMA0GCSqGSIb3DQEBAQUAA4GNADCBiQKBgQDU
1V6CWjqH/KWKzrh48ooY8jxh4EES0mGWsumFEjfF5Cu6uG0LFYl19nbKvESGBUMI
c1n6SGkvvwm368F3vvWL3fxmAPyHNkt0rD2HwQ+YeTOhktC2K6EA45ZyLiViroIU
MHnKXN2yLdWKYjFs6KdwkdseO05iSsOyDuilF+o1gwIDAQABo4GsMIGpMB0GA1Ud
DgQWBBQv4rPzeGxkh1HBq9EbDalNB6/8bDB9BgNVHSMEdjB0gBRQWahV5k+gKO6I
T49HeY8STaSm3aFZpFcwVTELMAkGA1UEBhMCR0IxJDAiBgNVBAoMG0NlcnRpZmlj
YXRlIFRyYW5zcGFyZW5jeSBDQTEOMAwGA1UECAwFV2FsZXMxEDAOBgNVBAcMB0Vy
dyBXZW6CAQEwCQYDVR0TBAIwADANBgkqhkiG9w0BAQUFAAOBgQAB+fJ9jwOTxotu
10BY/WnqDlOA1jxZL1kDgdtrzzHXPZcNGr5jaWjfCJSQp0P9cVd/qyxs/tEf+8aS
EZkyEX+UDUrRcI8IdeU0kwBFVhk8ooTTdmXPMoKh6g/unkykl9iypX5rpaATQnKV
Qulq4vJTVkkUbJ9CtTNR9xxK68S/hg==
-----END CERTIFICATE-----
